; Function Attrs: mustprogress nofree norecurse nosync nounwind willreturn memory(argmem: write) uwtable
define internal fastcc void @set_sample_rate_params(ptr writeonly captures(none) initializes((160, 164), (876, 880)) %.32.val, i32 %.344.val) unnamed_addr #6 {
  %1 = icmp slt i32 %.344.val, 11025
  br i1 %1, label %6, label %2

2:                                                ; preds = %0
  %3 = icmp samesign ult i32 %.344.val, 22050
  br i1 %3, label %6, label %4

4:                                                ; preds = %2
  %5 = icmp samesign ult i32 %.344.val, 44100
  %. = zext i1 %5 to i64
  br label %6

6:                                                ; preds = %4, %2, %0
  %.0 = phi i64 [ 3, %0 ], [ 2, %2 ], [ %., %4 ]
  %7 = sext i32 %.344.val to i64
  %8 = add nsw i64 %7, 511
  %9 = lshr i64 %8, 9
  %10 = add nuw nsw i64 %9, 3
  %11 = and i64 %10, 4294967292
  %12 = shl nuw nsw i64 %11, %.0
  %13 = trunc i64 %12 to i32
  %14 = getelementptr inbounds nuw i8, ptr %.32.val, i64 160
  store i32 %13, ptr %14, align 16, !tbaa !37
  %15 = lshr i64 %8, 8
  %16 = trunc i64 %15 to i32
  %17 = add i32 %16, 6
  %18 = and i32 %17, -8
  %19 = getelementptr inbounds nuw i8, ptr %.32.val, i64 876
  store i32 %18, ptr %19, align 4, !tbaa !38
  ret void
}